(dp0
S'A'
p1
F71.03711
sS'C'
p2
F103.00919
sS'E'
p3
F129.04259
sS'D'
p4
F115.02694
sS'G'
p5
F57.02146
sS'F'
p6
F147.06841
sS'I'
p7
F113.08406
sS'H'
p8
F137.05891
sS'K'
p9
F128.09496
sS'M'
p10
F131.04049
sS'L'
p11
F113.08406
sS'N'
p12
F114.04293
sS'Q'
p13
F128.05858
sS'P'
p14
F97.05276
sS'S'
p15
F87.03203
sS'R'
p16
F156.10111
sS'T'
p17
F101.04768
sS'W'
p18
F186.07931
sS'V'
p19
F99.06841
sS'Y'
p20
F163.06333
s.